/*
 * Intel ACPI Component Architecture
 * AML/ASL+ Disassembler version 20190703 (32-bit version)
 * Copyright (c) 2000 - 2019 Intel Corporation
 * 
 * Disassembly of bgrt.aml, Tue Aug  6 10:34:04 2019
 *
 * ACPI Data Table [BGRT]
 *
 * Format: [HexOffset DecimalOffset ByteLength]  FieldName : FieldValue
 */

[000h 0000   4]                    Signature : "BGRT"    [Boot Graphics Resource Table]
[004h 0004   4]                 Table Length : 00000038
[008h 0008   1]                     Revision : 01
[009h 0009   1]                     Checksum : 24
[00Ah 0010   6]                       Oem ID : "INTEL "
[010h 0016   8]                 Oem Table ID : "TEMPLATE"
[018h 0024   4]                 Oem Revision : 00000001
[01Ch 0028   4]              Asl Compiler ID : "INTL"
[020h 0032   4]        Asl Compiler Revision : 20190703

[024h 0036   2]                      Version : 0001
[026h 0038   1]       Status (decoded below) : 00
                                   Displayed : 0
                          Orientation Offset : 0
[027h 0039   1]                   Image Type : 00
[028h 0040   8]                Image Address : 0000000000000000
[030h 0048   4]                Image OffsetX : 00000000
[034h 0052   4]                Image OffsetY : 00000000

Raw Table Data: Length 56 (0x38)

    0000: 42 47 52 54 38 00 00 00 01 24 49 4E 54 45 4C 20  // BGRT8....$INTEL 
    0010: 54 45 4D 50 4C 41 54 45 01 00 00 00 49 4E 54 4C  // TEMPLATE....INTL
    0020: 03 07 19 20 01 00 00 00 00 00 00 00 00 00 00 00  // ... ............
    0030: 00 00 00 00 00 00 00 00                          // ........
