/*
 * Intel ACPI Component Architecture
 * AML/ASL+ Disassembler version 20190703 (32-bit version)
 * Copyright (c) 2000 - 2019 Intel Corporation
 * 
 * Disassembly of boot.aml, Tue Aug  6 10:34:04 2019
 *
 * ACPI Data Table [BOOT]
 *
 * Format: [HexOffset DecimalOffset ByteLength]  FieldName : FieldValue
 */

[000h 0000   4]                    Signature : "BOOT"    [Simple Boot Flag Table]
[004h 0004   4]                 Table Length : 00000028
[008h 0008   1]                     Revision : 01
[009h 0009   1]                     Checksum : 27
[00Ah 0010   6]                       Oem ID : "INTEL "
[010h 0016   8]                 Oem Table ID : "TEMPLATE"
[018h 0024   4]                 Oem Revision : 06040000
[01Ch 0028   4]              Asl Compiler ID : "INTL"
[020h 0032   4]        Asl Compiler Revision : 20190703

[024h 0036   1]          Boot Register Index : 00
[025h 0037   3]                     Reserved : 000000

Raw Table Data: Length 40 (0x28)

    0000: 42 4F 4F 54 28 00 00 00 01 27 49 4E 54 45 4C 20  // BOOT(....'INTEL 
    0010: 54 45 4D 50 4C 41 54 45 00 00 04 06 49 4E 54 4C  // TEMPLATE....INTL
    0020: 03 07 19 20 00 00 00 00                          // ... ....
