/*
 * Intel ACPI Component Architecture
 * AML/ASL+ Disassembler version 20190703 (32-bit version)
 * Copyright (c) 2000 - 2019 Intel Corporation
 * 
 * Disassembly of ecdt.aml, Tue Aug  6 10:34:04 2019
 *
 * ACPI Data Table [ECDT]
 *
 * Format: [HexOffset DecimalOffset ByteLength]  FieldName : FieldValue
 */

[000h 0000   4]                    Signature : "ECDT"    [Embedded Controller Boot Resources Table]
[004h 0004   4]                 Table Length : 00000042
[008h 0008   1]                     Revision : 01
[009h 0009   1]                     Checksum : 47
[00Ah 0010   6]                       Oem ID : "INTEL "
[010h 0016   8]                 Oem Table ID : "TEMPLATE"
[018h 0024   4]                 Oem Revision : 00000001
[01Ch 0028   4]              Asl Compiler ID : "INTL"
[020h 0032   4]        Asl Compiler Revision : 20190703


[024h 0036  12]      Command/Status Register : [Generic Address Structure]
[024h 0036   1]                     Space ID : 01 [SystemIO]
[025h 0037   1]                    Bit Width : 08
[026h 0038   1]                   Bit Offset : 00
[027h 0039   1]         Encoded Access Width : 00 [Undefined/Legacy]
[028h 0040   8]                      Address : 0000000000000066

[030h 0048  12]                Data Register : [Generic Address Structure]
[030h 0048   1]                     Space ID : 01 [SystemIO]
[031h 0049   1]                    Bit Width : 08
[032h 0050   1]                   Bit Offset : 00
[033h 0051   1]         Encoded Access Width : 00 [Undefined/Legacy]
[034h 0052   8]                      Address : 0000000000000062

[03Ch 0060   4]                          UID : 00000000
[040h 0064   1]                   GPE Number : 09
[041h 0065   1]                     Namepath : ""

Raw Table Data: Length 66 (0x42)

    0000: 45 43 44 54 42 00 00 00 01 47 49 4E 54 45 4C 20  // ECDTB....GINTEL 
    0010: 54 45 4D 50 4C 41 54 45 01 00 00 00 49 4E 54 4C  // TEMPLATE....INTL
    0020: 03 07 19 20 01 08 00 00 66 00 00 00 00 00 00 00  // ... ....f.......
    0030: 01 08 00 00 62 00 00 00 00 00 00 00 00 00 00 00  // ....b...........
    0040: 09 00                                            // ..
