/*
 * Intel ACPI Component Architecture
 * AML/ASL+ Disassembler version 20190703 (32-bit version)
 * Copyright (c) 2000 - 2019 Intel Corporation
 * 
 * Disassembly of msdm.aml, Tue Aug  6 10:34:05 2019
 *
 * ACPI Data Table [MSDM]
 *
 * Format: [HexOffset DecimalOffset ByteLength]  FieldName : FieldValue
 */

[000h 0000   4]                    Signature : "MSDM"    [Microsoft Data Management table]
[004h 0004   4]                 Table Length : 00000064
[008h 0008   1]                     Revision : 01
[009h 0009   1]                     Checksum : 2C
[00Ah 0010   6]                       Oem ID : "Intel"
[010h 0016   8]                 Oem Table ID : "Template"
[018h 0024   4]                 Oem Revision : 00000003
[01Ch 0028   4]              Asl Compiler ID : "INTL"
[020h 0032   4]        Asl Compiler Revision : 20190703

[024h 0036  64] Software Licensing Structure : \
    00 00 00 00 0A 10 16 17 18 19 1A 1B 1C 1D 1E 1F \
    20 21 22 23 24 25 26 27 10 0A 15 16 17 18 19 1A \
    1B 1C 1D 1E 1F 20 21 22 23 24 25 26 16 15 0A 10 \
    16 17 18 19 1A 1B 1C 1D 1E 1F 20 21 22 23 24 25 

Raw Table Data: Length 100 (0x64)

    0000: 4D 53 44 4D 64 00 00 00 01 2C 49 6E 74 65 6C 00  // MSDMd....,Intel.
    0010: 54 65 6D 70 6C 61 74 65 03 00 00 00 49 4E 54 4C  // Template....INTL
    0020: 03 07 19 20 00 00 00 00 0A 10 16 17 18 19 1A 1B  // ... ............
    0030: 1C 1D 1E 1F 20 21 22 23 24 25 26 27 10 0A 15 16  // .... !"#$%&'....
    0040: 17 18 19 1A 1B 1C 1D 1E 1F 20 21 22 23 24 25 26  // ......... !"#$%&
    0050: 16 15 0A 10 16 17 18 19 1A 1B 1C 1D 1E 1F 20 21  // .............. !
    0060: 22 23 24 25                                      // "#$%
