/*
 * Intel ACPI Component Architecture
 * AML/ASL+ Disassembler version 20190703 (32-bit version)
 * Copyright (c) 2000 - 2019 Intel Corporation
 * 
 * Disassembly of rasf.aml, Tue Aug  6 10:34:05 2019
 *
 * ACPI Data Table [RASF]
 *
 * Format: [HexOffset DecimalOffset ByteLength]  FieldName : FieldValue
 */

[000h 0000   4]                    Signature : "RASF"    [RAS Features Table]
[004h 0004   4]                 Table Length : 00000030
[008h 0008   1]                     Revision : 01
[009h 0009   1]                     Checksum : 50
[00Ah 0010   6]                       Oem ID : "INTEL "
[010h 0016   8]                 Oem Table ID : "Template"
[018h 0024   4]                 Oem Revision : 00000001
[01Ch 0028   4]              Asl Compiler ID : "INTL"
[020h 0032   4]        Asl Compiler Revision : 20190703

[024h 0036  12]                   Channel ID : 00 00 00 00 00 00 00 00 00 00 00 00

Raw Table Data: Length 48 (0x30)

    0000: 52 41 53 46 30 00 00 00 01 50 49 4E 54 45 4C 20  // RASF0....PINTEL 
    0010: 54 65 6D 70 6C 61 74 65 01 00 00 00 49 4E 54 4C  // Template....INTL
    0020: 03 07 19 20 00 00 00 00 00 00 00 00 00 00 00 00  // ... ............
