/*
 * Intel ACPI Component Architecture
 * AML/ASL+ Disassembler version 20190703 (32-bit version)
 * Copyright (c) 2000 - 2019 Intel Corporation
 * 
 * Disassembly of sbst.aml, Tue Aug  6 10:34:05 2019
 *
 * ACPI Data Table [SBST]
 *
 * Format: [HexOffset DecimalOffset ByteLength]  FieldName : FieldValue
 */

[000h 0000   4]                    Signature : "SBST"    [Smart Battery Specification Table]
[004h 0004   4]                 Table Length : 00000030
[008h 0008   1]                     Revision : 01
[009h 0009   1]                     Checksum : 20
[00Ah 0010   6]                       Oem ID : "INTEL "
[010h 0016   8]                 Oem Table ID : "TEMPLATE"
[018h 0024   4]                 Oem Revision : 00000001
[01Ch 0028   4]              Asl Compiler ID : "INTL"
[020h 0032   4]        Asl Compiler Revision : 20190703

[024h 0036   4]                Warning Level : 00000000
[028h 0040   4]                    Low Level : 00000000
[02Ch 0044   4]               Critical Level : 00000000

Raw Table Data: Length 48 (0x30)

    0000: 53 42 53 54 30 00 00 00 01 20 49 4E 54 45 4C 20  // SBST0.... INTEL 
    0010: 54 45 4D 50 4C 41 54 45 01 00 00 00 49 4E 54 4C  // TEMPLATE....INTL
    0020: 03 07 19 20 00 00 00 00 00 00 00 00 00 00 00 00  // ... ............
