/*
 * Intel ACPI Component Architecture
 * AML/ASL+ Disassembler version 20190703 (32-bit version)
 * Copyright (c) 2000 - 2019 Intel Corporation
 * 
 * Disassembly of sdei.aml, Tue Aug  6 10:34:05 2019
 *
 * ACPI Data Table [SDEI]
 *
 * Format: [HexOffset DecimalOffset ByteLength]  FieldName : FieldValue
 */

[000h 0000   4]                    Signature : "SDEI"    [Software Delegated Exception Interface Table]
[004h 0004   4]                 Table Length : 00000024
[008h 0008   1]                     Revision : 01
[009h 0009   1]                     Checksum : 9F
[00Ah 0010   6]                       Oem ID : "ARM   "
[010h 0016   8]                 Oem Table ID : "TEMPLATE"
[018h 0024   4]                 Oem Revision : 00000001
[01Ch 0028   4]              Asl Compiler ID : "INTL"
[020h 0032   4]        Asl Compiler Revision : 20190703


Raw Table Data: Length 36 (0x24)

    0000: 53 44 45 49 24 00 00 00 01 9F 41 52 4D 20 20 20  // SDEI$.....ARM   
    0010: 54 45 4D 50 4C 41 54 45 01 00 00 00 49 4E 54 4C  // TEMPLATE....INTL
    0020: 03 07 19 20                                      // ... 
