/*
 * Intel ACPI Component Architecture
 * AML/ASL+ Disassembler version 20190703 (32-bit version)
 * Copyright (c) 2000 - 2019 Intel Corporation
 * 
 * Disassembly of waet.aml, Tue Aug  6 10:34:05 2019
 *
 * ACPI Data Table [WAET]
 *
 * Format: [HexOffset DecimalOffset ByteLength]  FieldName : FieldValue
 */

[000h 0000   4]                    Signature : "WAET"    [Windows ACPI Emulated Devices Table]
[004h 0004   4]                 Table Length : 00000028
[008h 0008   1]                     Revision : 01
[009h 0009   1]                     Checksum : 33
[00Ah 0010   6]                       Oem ID : "INTEL "
[010h 0016   8]                 Oem Table ID : "TEMPLATE"
[018h 0024   4]                 Oem Revision : 00000001
[01Ch 0028   4]              Asl Compiler ID : "INTL"
[020h 0032   4]        Asl Compiler Revision : 20190703

[024h 0036   4]        Flags (decoded below) : 00000000
                        RTC needs no INT ack : 0
                     PM timer, one read only : 0

Raw Table Data: Length 40 (0x28)

    0000: 57 41 45 54 28 00 00 00 01 33 49 4E 54 45 4C 20  // WAET(....3INTEL 
    0010: 54 45 4D 50 4C 41 54 45 01 00 00 00 49 4E 54 4C  // TEMPLATE....INTL
    0020: 03 07 19 20 00 00 00 00                          // ... ....
