/*
 * Intel ACPI Component Architecture
 * AML/ASL+ Disassembler version 20190703 (32-bit version)
 * Copyright (c) 2000 - 2019 Intel Corporation
 * 
 * Disassembly of wpbt.aml, Tue Aug  6 10:34:05 2019
 *
 * ACPI Data Table [WPBT]
 *
 * Format: [HexOffset DecimalOffset ByteLength]  FieldName : FieldValue
 */

[000h 0000   4]                    Signature : "WPBT"    [Windows Platform Binary Table]
[004h 0004   4]                 Table Length : 00000098
[008h 0008   1]                     Revision : 01
[009h 0009   1]                     Checksum : 89
[00Ah 0010   6]                       Oem ID : "INTEL "
[010h 0016   8]                 Oem Table ID : "TEMPLATE"
[018h 0024   4]                 Oem Revision : 00000001
[01Ch 0028   4]              Asl Compiler ID : "INTL"
[020h 0032   4]        Asl Compiler Revision : 20190703

[024h 0036   4]                 Handoff Size : 12345678
[028h 0040   8]              Handoff Address : AA000000BB000000
[030h 0048   1]                       Layout : 33
[031h 0049   1]                         Type : 88
[032h 0050   2]             Arguments Length : 0064
[034h 0052 100]       Command-line Arguments : "4 score and 7 years ago our fathers brought forth"

Raw Table Data: Length 152 (0x98)

    0000: 57 50 42 54 98 00 00 00 01 89 49 4E 54 45 4C 20  // WPBT......INTEL 
    0010: 54 45 4D 50 4C 41 54 45 01 00 00 00 49 4E 54 4C  // TEMPLATE....INTL
    0020: 03 07 19 20 78 56 34 12 00 00 00 BB 00 00 00 AA  // ... xV4.........
    0030: 33 88 64 00 34 00 20 00 73 00 63 00 6F 00 72 00  // 3.d.4. .s.c.o.r.
    0040: 65 00 20 00 61 00 6E 00 64 00 20 00 37 00 20 00  // e. .a.n.d. .7. .
    0050: 79 00 65 00 61 00 72 00 73 00 20 00 61 00 67 00  // y.e.a.r.s. .a.g.
    0060: 6F 00 20 00 6F 00 75 00 72 00 20 00 66 00 61 00  // o. .o.u.r. .f.a.
    0070: 74 00 68 00 65 00 72 00 73 00 20 00 62 00 72 00  // t.h.e.r.s. .b.r.
    0080: 6F 00 75 00 67 00 68 00 74 00 20 00 66 00 6F 00  // o.u.g.h.t. .f.o.
    0090: 72 00 74 00 68 00 00 00                          // r.t.h...
